; Function Attrs: mustprogress nounwind uwtable
define hidden void @_ZN5SqlDBD2Ev(ptr noundef nonnull align 8 captures(none) dereferenceable(8) %0) unnamed_addr #3 align 2 personality ptr @__gxx_personality_v0 {
  %2 = load ptr, ptr %0, align 8
  %.not = icmp eq ptr %2, null
  br i1 %.not, label %5, label %3

3:                                                ; preds = %1
  %4 = invoke i32 @sqlite3_close(ptr noundef nonnull %2)
          to label %5 unwind label %6

5:                                                ; preds = %3, %1
  store ptr null, ptr %0, align 8
  ret void

6:                                                ; preds = %3
  %7 = landingpad { ptr, i32 }
          catch ptr null
  %8 = extractvalue { ptr, i32 } %7, 0
  tail call void @__clang_call_terminate(ptr %8) #17
  unreachable
}